target datalayout = "e-m:e-p270:32:32-p271:32:32-p272:64:64-i64:64-i128:128-f80:128-n8:16:32:64-S128"
target triple = "x86_64-pc-linux-gnu"

%"class.clang::SanitizerMask" = type { [2 x i64] }
%"class.clang::CodeGen::RawAddress" = type { %"class.llvm::PointerIntPair", ptr, %"class.clang::CharUnits" }
%"class.llvm::PointerIntPair" = type { %"struct.llvm::detail::PunnedPointer" }
%"struct.llvm::detail::PunnedPointer" = type { [8 x i8] }
%"class.clang::CharUnits" = type { i64 }
%"class.clang::CodeGen::CodeGenFunction" = type { %"struct.clang::CodeGen::CodeGenTypeCache", ptr, ptr, ptr, %"class.clang::CodeGen::LoopInfoStack", %"class.clang::CodeGen::CGBuilderTy", %"class.clang::CodeGen::VarBypassDetector", %"class.llvm::SmallVector.24", %"class.llvm::SmallVector.29", %"class.llvm::SmallVector.34", i32, ptr, ptr, ptr, %"class.clang::QualType", ptr, %"class.llvm::SmallVector.41", %"struct.clang::CodeGen::CodeGenFunction::CGCoroInfo", %"struct.clang::CodeGen::CodeGenFunction::AwaitSuspendWrapperInfo", %"class.clang::GlobalDecl", %"class.clang::CodeGen::EHScopeStack::stable_iterator", %"struct.clang::CodeGen::CodeGenFunction::JumpDest", %"class.clang::CodeGen::Address", %"class.clang::CodeGen::Address", ptr, %"class.llvm::AssertingVH", %"class.llvm::AssertingVH", ptr, %"struct.clang::SanitizerSet", i8, i8, i8, i8, [4 x i8], %"class.clang::GlobalDecl", i8, i8, i8, i8, i8, i8, ptr, ptr, ptr, %"class.llvm::DenseMap.50", ptr, %"class.llvm::DenseMap.53", %"class.clang::CodeGen::EHScopeStack", %"class.llvm::SmallVector.61", %"class.llvm::SmallVector.67", %"class.llvm::SmallVector.72", ptr, %"class.clang::CodeGen::RawAddress", i32, ptr, ptr, ptr, %"class.llvm::SmallVector.77", ptr, ptr, ptr, ptr, ptr, ptr, i8, %"class.clang::FPOptions", %"class.llvm::SmallVector.82", %"class.clang::CodeGen::EHScopeStack::stable_iterator", ptr, i32, i8, i8, ptr, %"class.llvm::DenseMap.87", %"class.llvm::DenseMap.90", %"class.llvm::SmallDenseMap", %"class.llvm::DenseMap.94", %"class.llvm::DenseMap.97", %"class.llvm::SmallVector.100", %"class.clang::CodeGen::CodeGenFunction::OpenMPCancelExitStack", %"class.clang::CodeGen::CodeGenPGO", %"class.clang::CodeGen::Address", ptr, ptr, ptr, ptr, %"class.llvm::DenseMap.146", %"class.llvm::DenseMap.149", %"class.llvm::DenseMap.152", ptr, i32, i32, %"class.clang::SourceLocation", %"class.clang::CurrentSourceLocExprScope", ptr, ptr, ptr, %"class.clang::CharUnits", %"class.clang::CharUnits", %"class.clang::CodeGen::Address", ptr, %"class.clang::CodeGen::CallArgList", ptr, ptr, ptr, ptr, %"class.clang::SourceLocation", [4 x i8], %"class.llvm::DenseMap.170", ptr, %"class.clang::CodeGen::Address", ptr, ptr, %"class.llvm::SmallVector.173", %"class.llvm::MapVector", i32, i8, ptr, %"class.llvm::SmallVector.186" }
%"struct.clang::CodeGen::CodeGenTypeCache" = type { ptr, ptr, ptr, ptr, ptr, ptr, ptr, ptr, ptr, ptr, ptr, %union.anon, %union.anon.0, %union.anon.1, %union.anon.2, ptr, %union.anon.3, i8, %union.anon.4, %union.anon.5, i32, i32 }
%union.anon = type { ptr }
%union.anon.0 = type { ptr }
%union.anon.1 = type { ptr }
%union.anon.2 = type { ptr }
%union.anon.3 = type { i8 }
%union.anon.4 = type { i8 }
%union.anon.5 = type { i8 }
%"class.clang::CodeGen::LoopInfoStack" = type { %"struct.clang::CodeGen::LoopAttributes", %"class.llvm::SmallVector" }
%"struct.clang::CodeGen::LoopAttributes" = type <{ i8, [3 x i8], i32, i32, i32, i32, i32, i32, i32, i32, i32, i32, i8, [3 x i8], i32, i32, i8, [3 x i8] }>
%"class.llvm::SmallVector" = type { %"class.llvm::SmallVectorImpl", %"struct.llvm::SmallVectorStorage" }
%"class.llvm::SmallVectorImpl" = type { %"class.llvm::SmallVectorTemplateBase" }
%"class.llvm::SmallVectorTemplateBase" = type { %"class.llvm::SmallVectorTemplateCommon" }
%"class.llvm::SmallVectorTemplateCommon" = type { %"class.llvm::SmallVectorBase" }
%"class.llvm::SmallVectorBase" = type { ptr, i32, i32 }
%"struct.llvm::SmallVectorStorage" = type { [32 x i8] }
%"class.clang::CodeGen::CGBuilderTy" = type { %"class.llvm::IRBuilder", ptr }
%"class.llvm::IRBuilder" = type { %"class.llvm::IRBuilderBase", %"class.llvm::ConstantFolder", %"class.clang::CodeGen::CGBuilderInserter" }
%"class.llvm::IRBuilderBase" = type { %"class.llvm::SmallVector.6", ptr, %"class.llvm::ilist_iterator_w_bits", ptr, ptr, ptr, ptr, %"class.llvm::FastMathFlags", i8, i8, i8, %"class.llvm::ArrayRef" }
%"class.llvm::SmallVector.6" = type { %"class.llvm::SmallVectorImpl.7", %"struct.llvm::SmallVectorStorage.10" }
%"class.llvm::SmallVectorImpl.7" = type { %"class.llvm::SmallVectorTemplateBase.8" }
%"class.llvm::SmallVectorTemplateBase.8" = type { %"class.llvm::SmallVectorTemplateCommon.9" }
%"class.llvm::SmallVectorTemplateCommon.9" = type { %"class.llvm::SmallVectorBase" }
%"struct.llvm::SmallVectorStorage.10" = type { [32 x i8] }
%"class.llvm::ilist_iterator_w_bits" = type <{ ptr, i8, i8, [6 x i8] }>
%"class.llvm::FastMathFlags" = type { i32 }
%"class.llvm::ArrayRef" = type { ptr, i64 }
%"class.llvm::ConstantFolder" = type { %"class.llvm::IRBuilderFolder" }
%"class.llvm::IRBuilderFolder" = type { ptr }
%"class.clang::CodeGen::CGBuilderInserter" = type { %"class.llvm::IRBuilderDefaultInserter", ptr }
%"class.llvm::IRBuilderDefaultInserter" = type { ptr }
%"class.clang::CodeGen::VarBypassDetector" = type <{ %"class.llvm::SmallVector.11", %"class.llvm::SmallVector.16", %"class.llvm::DenseMap", %"class.llvm::DenseSet", i8, [7 x i8] }>
%"class.llvm::SmallVector.11" = type { %"class.llvm::SmallVectorImpl.12", %"struct.llvm::SmallVectorStorage.15" }
%"class.llvm::SmallVectorImpl.12" = type { %"class.llvm::SmallVectorTemplateBase.13" }
%"class.llvm::SmallVectorTemplateBase.13" = type { %"class.llvm::SmallVectorTemplateCommon.14" }
%"class.llvm::SmallVectorTemplateCommon.14" = type { %"class.llvm::SmallVectorBase" }
%"struct.llvm::SmallVectorStorage.15" = type { [768 x i8] }
%"class.llvm::SmallVector.16" = type { %"class.llvm::SmallVectorImpl.17", %"struct.llvm::SmallVectorStorage.20" }
%"class.llvm::SmallVectorImpl.17" = type { %"class.llvm::SmallVectorTemplateBase.18" }
%"class.llvm::SmallVectorTemplateBase.18" = type { %"class.llvm::SmallVectorTemplateCommon.19" }
%"class.llvm::SmallVectorTemplateCommon.19" = type { %"class.llvm::SmallVectorBase" }
%"struct.llvm::SmallVectorStorage.20" = type { [256 x i8] }
%"class.llvm::DenseMap" = type <{ ptr, i32, i32, i32, [4 x i8] }>
%"class.llvm::DenseSet" = type { %"class.llvm::detail::DenseSetImpl" }
%"class.llvm::detail::DenseSetImpl" = type { %"class.llvm::DenseMap.21" }
%"class.llvm::DenseMap.21" = type <{ ptr, i32, i32, i32, [4 x i8] }>
%"class.llvm::SmallVector.24" = type { %"class.llvm::SmallVectorImpl.25", %"struct.llvm::SmallVectorStorage.28" }
%"class.llvm::SmallVectorImpl.25" = type { %"class.llvm::SmallVectorTemplateBase.26" }
%"class.llvm::SmallVectorTemplateBase.26" = type { %"class.llvm::SmallVectorTemplateCommon.27" }
%"class.llvm::SmallVectorTemplateCommon.27" = type { %"class.llvm::SmallVectorBase" }
%"struct.llvm::SmallVectorStorage.28" = type { [32 x i8] }
%"class.llvm::SmallVector.29" = type { %"class.llvm::SmallVectorImpl.30", %"struct.llvm::SmallVectorStorage.33" }
%"class.llvm::SmallVectorImpl.30" = type { %"class.llvm::SmallVectorTemplateBase.31" }
%"class.llvm::SmallVectorTemplateBase.31" = type { %"class.llvm::SmallVectorTemplateCommon.32" }
%"class.llvm::SmallVectorTemplateCommon.32" = type { %"class.llvm::SmallVectorBase" }
%"struct.llvm::SmallVectorStorage.33" = type { [128 x i8] }
%"class.llvm::SmallVector.34" = type { %"class.llvm::SmallVectorImpl.35", %"struct.llvm::SmallVectorStorage.38" }
%"class.llvm::SmallVectorImpl.35" = type { %"class.llvm::SmallVectorTemplateBase.36" }
%"class.llvm::SmallVectorTemplateBase.36" = type { %"class.llvm::SmallVectorTemplateCommon.37" }
%"class.llvm::SmallVectorTemplateCommon.37" = type { %"class.llvm::SmallVectorBase" }
%"struct.llvm::SmallVectorStorage.38" = type { [32 x i8] }
%"class.clang::QualType" = type { %"class.llvm::PointerIntPair.39" }
%"class.llvm::PointerIntPair.39" = type { %"struct.llvm::detail::PunnedPointer.40" }
%"struct.llvm::detail::PunnedPointer.40" = type { [8 x i8] }
%"class.llvm::SmallVector.41" = type { %"class.llvm::SmallVectorImpl.42", %"struct.llvm::SmallVectorStorage.45" }
%"class.llvm::SmallVectorImpl.42" = type { %"class.llvm::SmallVectorTemplateBase.43" }
%"class.llvm::SmallVectorTemplateBase.43" = type { %"class.llvm::SmallVectorTemplateCommon.44" }
%"class.llvm::SmallVectorTemplateCommon.44" = type { %"class.llvm::SmallVectorBase" }
%"struct.llvm::SmallVectorStorage.45" = type { [32 x i8] }
%"struct.clang::CodeGen::CodeGenFunction::CGCoroInfo" = type <{ %"class.std::unique_ptr", i8, [7 x i8] }>
%"class.std::unique_ptr" = type { %"struct.std::__uniq_ptr_data" }
%"struct.std::__uniq_ptr_data" = type { %"class.std::__uniq_ptr_impl" }
%"class.std::__uniq_ptr_impl" = type { %"class.std::tuple" }
%"class.std::tuple" = type { %"struct.std::_Tuple_impl" }
%"struct.std::_Tuple_impl" = type { %"struct.std::_Head_base.47" }
%"struct.std::_Head_base.47" = type { ptr }
%"struct.clang::CodeGen::CodeGenFunction::AwaitSuspendWrapperInfo" = type { ptr }
%"struct.clang::CodeGen::CodeGenFunction::JumpDest" = type <{ ptr, %"class.clang::CodeGen::EHScopeStack::stable_iterator", i32, [4 x i8] }>
%"class.llvm::AssertingVH" = type { ptr }
%"struct.clang::SanitizerSet" = type { %"class.clang::SanitizerMask" }
%"class.clang::GlobalDecl" = type { %"class.llvm::PointerIntPair.48", i32, [4 x i8] }
%"class.llvm::PointerIntPair.48" = type { %"struct.llvm::detail::PunnedPointer.49" }
%"struct.llvm::detail::PunnedPointer.49" = type { [8 x i8] }
%"class.llvm::DenseMap.50" = type <{ ptr, i32, i32, i32, [4 x i8] }>
%"class.llvm::DenseMap.53" = type <{ ptr, i32, i32, i32, [4 x i8] }>
%"class.clang::CodeGen::EHScopeStack" = type { ptr, ptr, ptr, %"class.clang::CodeGen::EHScopeStack::stable_iterator", %"class.clang::CodeGen::EHScopeStack::stable_iterator", ptr, %"class.llvm::SmallVector.56" }
%"class.llvm::SmallVector.56" = type { %"class.llvm::SmallVectorImpl.57", %"struct.llvm::SmallVectorStorage.60" }
%"class.llvm::SmallVectorImpl.57" = type { %"class.llvm::SmallVectorTemplateBase.58" }
%"class.llvm::SmallVectorTemplateBase.58" = type { %"class.llvm::SmallVectorTemplateCommon.59" }
%"class.llvm::SmallVectorTemplateCommon.59" = type { %"class.llvm::SmallVectorBase" }
%"struct.llvm::SmallVectorStorage.60" = type { [256 x i8] }
%"class.llvm::SmallVector.61" = type { %"class.llvm::SmallVectorImpl.62", %"struct.llvm::SmallVectorStorage.66" }
%"class.llvm::SmallVectorImpl.62" = type { %"class.llvm::SmallVectorTemplateBase.63" }
%"class.llvm::SmallVectorTemplateBase.63" = type { %"class.llvm::SmallVectorTemplateCommon.64" }
%"class.llvm::SmallVectorTemplateCommon.64" = type { %"class.llvm::SmallVectorBase.65" }
%"class.llvm::SmallVectorBase.65" = type { ptr, i64, i64 }
%"struct.llvm::SmallVectorStorage.66" = type { [256 x i8] }
%"class.llvm::SmallVector.67" = type { %"class.llvm::SmallVectorImpl.68", %"struct.llvm::SmallVectorStorage.71" }
%"class.llvm::SmallVectorImpl.68" = type { %"class.llvm::SmallVectorTemplateBase.69" }
%"class.llvm::SmallVectorTemplateBase.69" = type { %"class.llvm::SmallVectorTemplateCommon.70" }
%"class.llvm::SmallVectorTemplateCommon.70" = type { %"class.llvm::SmallVectorBase" }
%"struct.llvm::SmallVectorStorage.71" = type { [48 x i8] }
%"class.llvm::SmallVector.72" = type { %"class.llvm::SmallVectorImpl.73", %"struct.llvm::SmallVectorStorage.76" }
%"class.llvm::SmallVectorImpl.73" = type { %"class.llvm::SmallVectorTemplateBase.74" }
%"class.llvm::SmallVectorTemplateBase.74" = type { %"class.llvm::SmallVectorTemplateCommon.75" }
%"class.llvm::SmallVectorTemplateCommon.75" = type { %"class.llvm::SmallVectorBase" }
%"struct.llvm::SmallVectorStorage.76" = type { [16 x i8] }
%"class.llvm::SmallVector.77" = type { %"class.llvm::SmallVectorImpl.78", %"struct.llvm::SmallVectorStorage.81" }
%"class.llvm::SmallVectorImpl.78" = type { %"class.llvm::SmallVectorTemplateBase.79" }
%"class.llvm::SmallVectorTemplateBase.79" = type { %"class.llvm::SmallVectorTemplateCommon.80" }
%"class.llvm::SmallVectorTemplateCommon.80" = type { %"class.llvm::SmallVectorBase" }
%"struct.llvm::SmallVectorStorage.81" = type { [48 x i8] }
%"class.clang::FPOptions" = type { i32 }
%"class.llvm::SmallVector.82" = type { %"class.llvm::SmallVectorImpl.83", %"struct.llvm::SmallVectorStorage.86" }
%"class.llvm::SmallVectorImpl.83" = type { %"class.llvm::SmallVectorTemplateBase.84" }
%"class.llvm::SmallVectorTemplateBase.84" = type { %"class.llvm::SmallVectorTemplateCommon.85" }
%"class.llvm::SmallVectorTemplateCommon.85" = type { %"class.llvm::SmallVectorBase" }
%"struct.llvm::SmallVectorStorage.86" = type { [64 x i8] }
%"class.clang::CodeGen::EHScopeStack::stable_iterator" = type { i64 }
%"class.llvm::DenseMap.87" = type <{ ptr, i32, i32, i32, [4 x i8] }>
%"class.llvm::DenseMap.90" = type <{ ptr, i32, i32, i32, [4 x i8] }>
%"class.llvm::SmallDenseMap" = type { i32, i32, %"struct.llvm::AlignedCharArrayUnion" }
%"struct.llvm::AlignedCharArrayUnion" = type { [32 x i8] }
%"class.llvm::DenseMap.94" = type <{ ptr, i32, i32, i32, [4 x i8] }>
%"class.llvm::DenseMap.97" = type <{ ptr, i32, i32, i32, [4 x i8] }>
%"class.llvm::SmallVector.100" = type { %"class.llvm::SmallVectorImpl.101", %"struct.llvm::SmallVectorStorage.104" }
%"class.llvm::SmallVectorImpl.101" = type { %"class.llvm::SmallVectorTemplateBase.102" }
%"class.llvm::SmallVectorTemplateBase.102" = type { %"class.llvm::SmallVectorTemplateCommon.103" }
%"class.llvm::SmallVectorTemplateCommon.103" = type { %"class.llvm::SmallVectorBase" }
%"struct.llvm::SmallVectorStorage.104" = type { [384 x i8] }
%"class.clang::CodeGen::CodeGenFunction::OpenMPCancelExitStack" = type { %"class.llvm::SmallVector.105" }
%"class.llvm::SmallVector.105" = type { %"class.llvm::SmallVectorImpl.106", %"struct.llvm::SmallVectorStorage.109" }
%"class.llvm::SmallVectorImpl.106" = type { %"class.llvm::SmallVectorTemplateBase.107" }
%"class.llvm::SmallVectorTemplateBase.107" = type { %"class.llvm::SmallVectorTemplateCommon.108" }
%"class.llvm::SmallVectorTemplateCommon.108" = type { %"class.llvm::SmallVectorBase" }
%"struct.llvm::SmallVectorStorage.109" = type { [448 x i8] }
%"class.clang::CodeGen::CodeGenPGO" = type { ptr, %"class.std::__cxx11::basic_string", ptr, %"struct.std::array", i32, i64, %"class.std::unique_ptr.111", %"class.std::unique_ptr.119", %"class.std::unique_ptr.127", %"class.std::unique_ptr.135", %"class.std::vector", i64 }
%"class.std::__cxx11::basic_string" = type { %"struct.std::__cxx11::basic_string<char>::_Alloc_hider", i64, %union.anon.110 }
%"struct.std::__cxx11::basic_string<char>::_Alloc_hider" = type { ptr }
%union.anon.110 = type { i64, [8 x i8] }
%"struct.std::array" = type { [3 x i32] }
%"class.std::unique_ptr.111" = type { %"struct.std::__uniq_ptr_data.112" }
%"struct.std::__uniq_ptr_data.112" = type { %"class.std::__uniq_ptr_impl.113" }
%"class.std::__uniq_ptr_impl.113" = type { %"class.std::tuple.114" }
%"class.std::tuple.114" = type { %"struct.std::_Tuple_impl.115" }
%"struct.std::_Tuple_impl.115" = type { %"struct.std::_Head_base.118" }
%"struct.std::_Head_base.118" = type { ptr }
%"class.std::unique_ptr.119" = type { %"struct.std::__uniq_ptr_data.120" }
%"struct.std::__uniq_ptr_data.120" = type { %"class.std::__uniq_ptr_impl.121" }
%"class.std::__uniq_ptr_impl.121" = type { %"class.std::tuple.122" }
%"class.std::tuple.122" = type { %"struct.std::_Tuple_impl.123" }
%"struct.std::_Tuple_impl.123" = type { %"struct.std::_Head_base.126" }
%"struct.std::_Head_base.126" = type { ptr }
%"class.std::unique_ptr.127" = type { %"struct.std::__uniq_ptr_data.128" }
%"struct.std::__uniq_ptr_data.128" = type { %"class.std::__uniq_ptr_impl.129" }
%"class.std::__uniq_ptr_impl.129" = type { %"class.std::tuple.130" }
%"class.std::tuple.130" = type { %"struct.std::_Tuple_impl.131" }
%"struct.std::_Tuple_impl.131" = type { %"struct.std::_Head_base.134" }
%"struct.std::_Head_base.134" = type { ptr }
%"class.std::unique_ptr.135" = type { %"struct.std::__uniq_ptr_data.136" }
%"struct.std::__uniq_ptr_data.136" = type { %"class.std::__uniq_ptr_impl.137" }
%"class.std::__uniq_ptr_impl.137" = type { %"class.std::tuple.138" }
%"class.std::tuple.138" = type { %"struct.std::_Tuple_impl.139" }
%"struct.std::_Tuple_impl.139" = type { %"struct.std::_Head_base.142" }
%"struct.std::_Head_base.142" = type { ptr }
%"class.std::vector" = type { %"struct.std::_Vector_base" }
%"struct.std::_Vector_base" = type { %"struct.std::_Vector_base<unsigned long, std::allocator<unsigned long>>::_Vector_impl" }
%"struct.std::_Vector_base<unsigned long, std::allocator<unsigned long>>::_Vector_impl" = type { %"struct.std::_Vector_base<unsigned long, std::allocator<unsigned long>>::_Vector_impl_data" }
%"struct.std::_Vector_base<unsigned long, std::allocator<unsigned long>>::_Vector_impl_data" = type { ptr, ptr, ptr }
%"class.llvm::DenseMap.146" = type <{ ptr, i32, i32, i32, [4 x i8] }>
%"class.llvm::DenseMap.149" = type <{ ptr, i32, i32, i32, [4 x i8] }>
%"class.llvm::DenseMap.152" = type <{ ptr, i32, i32, i32, [4 x i8] }>
%"class.clang::CurrentSourceLocExprScope" = type { ptr }
%"class.clang::CodeGen::CallArgList" = type { %"class.llvm::SmallVector.155", %"class.llvm::SmallVector.160", %"class.llvm::SmallVector.165", ptr }
%"class.llvm::SmallVector.155" = type { %"class.llvm::SmallVectorImpl.156", %"struct.llvm::SmallVectorStorage.159" }
%"class.llvm::SmallVectorImpl.156" = type { %"class.llvm::SmallVectorTemplateBase.157" }
%"class.llvm::SmallVectorTemplateBase.157" = type { %"class.llvm::SmallVectorTemplateCommon.158" }
%"class.llvm::SmallVectorTemplateCommon.158" = type { %"class.llvm::SmallVectorBase" }
%"struct.llvm::SmallVectorStorage.159" = type { [1216 x i8] }
%"class.llvm::SmallVector.160" = type { %"class.llvm::SmallVectorImpl.161", %"struct.llvm::SmallVectorStorage.164" }
%"class.llvm::SmallVectorImpl.161" = type { %"class.llvm::SmallVectorTemplateBase.162" }
%"class.llvm::SmallVectorTemplateBase.162" = type { %"class.llvm::SmallVectorTemplateCommon.163" }
%"class.llvm::SmallVectorTemplateCommon.163" = type { %"class.llvm::SmallVectorBase" }
%"struct.llvm::SmallVectorStorage.164" = type { [208 x i8] }
%"class.llvm::SmallVector.165" = type { %"class.llvm::SmallVectorImpl.166", %"struct.llvm::SmallVectorStorage.169" }
%"class.llvm::SmallVectorImpl.166" = type { %"class.llvm::SmallVectorTemplateBase.167" }
%"class.llvm::SmallVectorTemplateBase.167" = type { %"class.llvm::SmallVectorTemplateCommon.168" }
%"class.llvm::SmallVectorTemplateCommon.168" = type { %"class.llvm::SmallVectorBase" }
%"struct.llvm::SmallVectorStorage.169" = type { [16 x i8] }
%"class.clang::SourceLocation" = type { i32 }
%"class.llvm::DenseMap.170" = type <{ ptr, i32, i32, i32, [4 x i8] }>
%"class.clang::CodeGen::Address" = type { %"class.llvm::PointerIntPair", ptr, %"class.clang::CharUnits", %"class.clang::CodeGen::CGPointerAuthInfo", ptr }
%"class.clang::CodeGen::CGPointerAuthInfo" = type { i8, ptr }
%"class.llvm::SmallVector.173" = type { %"class.llvm::SmallVectorImpl.174", %"struct.llvm::SmallVectorStorage.177" }
%"class.llvm::SmallVectorImpl.174" = type { %"class.llvm::SmallVectorTemplateBase.175" }
%"class.llvm::SmallVectorTemplateBase.175" = type { %"class.llvm::SmallVectorTemplateCommon.176" }
%"class.llvm::SmallVectorTemplateCommon.176" = type { %"class.llvm::SmallVectorBase" }
%"struct.llvm::SmallVectorStorage.177" = type { [16 x i8] }
%"class.llvm::MapVector" = type { %"class.llvm::DenseMap.178", %"class.llvm::SmallVector.181" }
%"class.llvm::DenseMap.178" = type <{ ptr, i32, i32, i32, [4 x i8] }>
%"class.llvm::SmallVector.181" = type { %"class.llvm::SmallVectorImpl.182" }
%"class.llvm::SmallVectorImpl.182" = type { %"class.llvm::SmallVectorTemplateBase.183" }
%"class.llvm::SmallVectorTemplateBase.183" = type { %"class.llvm::SmallVectorTemplateCommon.184" }
%"class.llvm::SmallVectorTemplateCommon.184" = type { %"class.llvm::SmallVectorBase" }
%"class.llvm::SmallVector.186" = type { %"class.llvm::SmallVectorImpl.187", %"struct.llvm::SmallVectorStorage.190" }
%"class.llvm::SmallVectorImpl.187" = type { %"class.llvm::SmallVectorTemplateBase.188" }
%"class.llvm::SmallVectorTemplateBase.188" = type { %"class.llvm::SmallVectorTemplateCommon.189" }
%"class.llvm::SmallVectorTemplateCommon.189" = type { %"class.llvm::SmallVectorBase" }
%"struct.llvm::SmallVectorStorage.190" = type { [128 x i8] }
%"class.clang::SourceRange" = type { %"class.clang::SourceLocation", %"class.clang::SourceLocation" }
%"class.clang::DeclarationName" = type { i64 }
%"class.clang::NamedDecl" = type { %"class.clang::Decl.base", %"class.clang::DeclarationName" }
%"class.clang::Decl.base" = type <{ ptr, %"class.llvm::PointerIntPair.518", %"class.llvm::PointerUnion", %"class.clang::SourceLocation", i32, i8 }>
%"class.llvm::PointerIntPair.518" = type { %"struct.llvm::detail::PunnedPointer.519" }
%"struct.llvm::detail::PunnedPointer.519" = type { [8 x i8] }
%"class.llvm::PointerUnion" = type { %"class.llvm::pointer_union_detail::PointerUnionMembers" }
%"class.llvm::pointer_union_detail::PointerUnionMembers" = type { %"class.llvm::pointer_union_detail::PointerUnionMembers.520" }
%"class.llvm::pointer_union_detail::PointerUnionMembers.520" = type { %"class.llvm::pointer_union_detail::PointerUnionMembers.521" }
%"class.llvm::pointer_union_detail::PointerUnionMembers.521" = type { %"class.llvm::PointerIntPair.522" }
%"class.llvm::PointerIntPair.522" = type { %"struct.llvm::detail::PunnedPointer.523" }
%"struct.llvm::detail::PunnedPointer.523" = type { [8 x i8] }
%"class.clang::DeclContext" = type { ptr, %union.anon.524, ptr, ptr }
%union.anon.524 = type { %"class.clang::DeclContext::RecordDeclBitfields" }
%"class.clang::DeclContext::RecordDeclBitfields" = type { i64 }
%"class.clang::ObjCPropertyImplDecl" = type { %"class.clang::Decl.base", %"class.clang::SourceLocation", %"class.clang::SourceLocation", ptr, ptr, ptr, ptr, ptr, ptr }
%"class.clang::ObjCImplDecl" = type { %"class.clang::ObjCContainerDecl", ptr }
%"class.clang::ObjCContainerDecl" = type { %"class.clang::NamedDecl", %"class.clang::DeclContext", %"class.clang::SourceRange" }

; Function Attrs: mustprogress nounwind uwtable
define linkonce_odr hidden noundef ptr @_ZN5clang12ObjCImplDecl17getClassInterfaceEv(ptr noundef nonnull align 8 dereferenceable(96) %0) #0 comdat align 2 {
  %2 = alloca ptr, align 8
  store ptr %0, ptr %2, align 8
  %3 = load ptr, ptr %2, align 8
  %4 = getelementptr inbounds nuw %"class.clang::ObjCImplDecl", ptr %3, i32 0, i32 1
  %5 = load ptr, ptr %4, align 8
  ret ptr %5
}

; Function Attrs: mustprogress nounwind uwtable
define linkonce_odr hidden noundef ptr @_ZNK5clang20ObjCPropertyImplDecl19getSetterMethodDeclEv(ptr noundef nonnull align 8 dereferenceable(96) %0) #0 comdat align 2 {
  %2 = alloca ptr, align 8
  store ptr %0, ptr %2, align 8
  %3 = load ptr, ptr %2, align 8
  %4 = getelementptr inbounds nuw %"class.clang::ObjCPropertyImplDecl", ptr %3, i32 0, i32 6
  %5 = load ptr, ptr %4, align 8
  ret ptr %5
}

; Function Attrs: mustprogress nounwind uwtable
define dso_local void @_ZN5clang7CodeGen15CodeGenFunction18GenerateObjCSetterEPNS_22ObjCImplementationDeclEPKNS_20ObjCPropertyImplDeclE(ptr noundef nonnull align 8 dereferenceable(6488) %0, ptr noundef %1, ptr noundef %2) #0 align 2 {
  %4 = alloca ptr, align 8
  %5 = alloca ptr, align 8
  %6 = alloca ptr, align 8
  %7 = alloca ptr, align 8
  %8 = alloca %"class.clang::CodeGen::CodeGenFunction", align 8
  %9 = alloca ptr, align 8
  %10 = alloca %"class.clang::SourceLocation", align 4
  store ptr %0, ptr %4, align 8
  store ptr %1, ptr %5, align 8
  store ptr %2, ptr %6, align 8
  %11 = load ptr, ptr %4, align 8
  %12 = getelementptr inbounds nuw %"class.clang::CodeGen::CodeGenFunction", ptr %11, i32 0, i32 1
  %13 = load ptr, ptr %12, align 8
  call void @_ZN5clang7CodeGen15CodeGenFunctionC1ERNS0_13CodeGenModuleEb(ptr noundef nonnull align 8 dereferenceable(6488) %8, ptr noundef nonnull align 8 dereferenceable(3600) %13, i1 noundef zeroext false)
  %14 = load ptr, ptr %6, align 8
  %15 = call noundef ptr @_ZN5clang7CodeGen15CodeGenFunction42GenerateObjCAtomicSetterCopyHelperFunctionEPKNS_20ObjCPropertyImplDeclE(ptr noundef nonnull align 8 dereferenceable(6488) %8, ptr noundef %14)
  call void @_ZN5clang7CodeGen15CodeGenFunctionD1Ev(ptr noundef nonnull align 8 dereferenceable(6488) %8) #13
  store ptr %15, ptr %7, align 8
  %16 = load ptr, ptr %6, align 8
  %17 = call noundef ptr @_ZNK5clang20ObjCPropertyImplDecl19getSetterMethodDeclEv(ptr noundef nonnull align 8 dereferenceable(96) %16)
  store ptr %17, ptr %9, align 8
  %18 = load ptr, ptr %9, align 8
  %19 = load ptr, ptr %5, align 8
  %20 = call noundef ptr @_ZN5clang12ObjCImplDecl17getClassInterfaceEv(ptr noundef nonnull align 8 dereferenceable(96) %19)
  call void @_ZN5clang7CodeGen15CodeGenFunction15StartObjCMethodEPKNS_14ObjCMethodDeclEPKNS_17ObjCContainerDeclE(ptr noundef nonnull align 8 dereferenceable(6488) %11, ptr noundef %18, ptr noundef %20)
  %21 = load ptr, ptr %5, align 8
  %22 = load ptr, ptr %6, align 8
  %23 = load ptr, ptr %7, align 8
  call void @_ZN5clang7CodeGen15CodeGenFunction22generateObjCSetterBodyEPKNS_22ObjCImplementationDeclEPKNS_20ObjCPropertyImplDeclEPN4llvm8ConstantE(ptr noundef nonnull align 8 dereferenceable(6488) %11, ptr noundef %21, ptr noundef %22, ptr noundef %23)
  %24 = load ptr, ptr %9, align 8
  %25 = call i32 @_ZNK5clang14ObjCMethodDecl9getEndLocEv(ptr noundef nonnull align 8 dereferenceable(136) %24) #14
  %26 = getelementptr inbounds nuw %"class.clang::SourceLocation", ptr %10, i32 0, i32 0
  store i32 %25, ptr %26, align 4
  %27 = getelementptr inbounds nuw %"class.clang::SourceLocation", ptr %10, i32 0, i32 0
  %28 = load i32, ptr %27, align 4
  call void @_ZN5clang7CodeGen15CodeGenFunction14FinishFunctionENS_14SourceLocationE(ptr noundef nonnull align 8 dereferenceable(6488) %11, i32 %28)
  ret void
}