; Function Attrs: mustprogress nounwind uwtable
define dso_local void @_ZN5clang7CodeGen15CodeGenFunction18GenerateObjCSetterEPNS_22ObjCImplementationDeclEPKNS_20ObjCPropertyImplDeclE(ptr noundef nonnull align 8 dereferenceable(6488) %0, ptr noundef readonly captures(none) %1, ptr noundef %2) local_unnamed_addr #0 align 2 {
  %4 = alloca %"class.clang::CodeGen::CodeGenFunction", align 8
  %5 = getelementptr inbounds nuw i8, ptr %0, i64 144
  %6 = load ptr, ptr %5, align 8
  call void @_ZN5clang7CodeGen15CodeGenFunctionC1ERNS0_13CodeGenModuleEb(ptr noundef nonnull align 8 dereferenceable(6488) %4, ptr noundef nonnull align 8 dereferenceable(3600) %6, i1 noundef zeroext false) #20
  %7 = call noundef ptr @_ZN5clang7CodeGen15CodeGenFunction42GenerateObjCAtomicSetterCopyHelperFunctionEPKNS_20ObjCPropertyImplDeclE(ptr noundef nonnull align 8 dereferenceable(6488) %4, ptr noundef %2)
  call void @_ZN5clang7CodeGen15CodeGenFunctionD1Ev(ptr noundef nonnull align 8 dereferenceable(6488) %4) #20
  %8 = getelementptr inbounds nuw i8, ptr %2, i64 72
  %9 = load ptr, ptr %8, align 8
  %10 = getelementptr inbounds nuw i8, ptr %1, i64 88
  %11 = load ptr, ptr %10, align 8
  call void @_ZN5clang7CodeGen15CodeGenFunction15StartObjCMethodEPKNS_14ObjCMethodDeclEPKNS_17ObjCContainerDeclE(ptr noundef nonnull align 8 dereferenceable(6488) %0, ptr noundef %9, ptr noundef %11)
  call void @_ZN5clang7CodeGen15CodeGenFunction22generateObjCSetterBodyEPKNS_22ObjCImplementationDeclEPKNS_20ObjCPropertyImplDeclEPN4llvm8ConstantE(ptr noundef nonnull align 8 dereferenceable(6488) %0, ptr noundef nonnull %1, ptr noundef nonnull %2, ptr noundef %7)
  %12 = call i32 @_ZNK5clang14ObjCMethodDecl9getEndLocEv(ptr noundef nonnull align 8 dereferenceable(136) %9) #21
  call void @_ZN5clang7CodeGen15CodeGenFunction14FinishFunctionENS_14SourceLocationE(ptr noundef nonnull align 8 dereferenceable(6488) %0, i32 %12) #20
  ret void
}